(lp0
F0.7039068982340475
aF0.4677052789330961
aF0.6253872828267041
aF0.7245385220269782
aF0.6063600620137846
aF0.4443648040206052
aF0.7052711590223055
aF0.26881108035814416
aF0.3736328093293433
aF0.956405507621474
aF0.5985841558296087
aF0.030765439803867367
aF0.44259079416870806
aF0.26790804336736906
aF0.6079116203408573
aF0.4718097212621689
aF0.14070901671401015
aF0.34586458240772977
aF0.47371758309524126
aF0.2860704910835714
aF0.14088624839826713
aF0.28408451952840597
aF0.7730206395337361
aF0.26903069942145363
aF0.24912227044261814
aF0.49576395602390844
aF0.10575069265292014
aF0.7229382562696233
aF0.7573293903717362
aF0.3119539612059038
aF0.29480575391988706
aF0.6705696552214805
aF0.34557456678886533
aF0.26948818654817597
aF0.7311804254934204
aF0.943853734580703
aF0.24265524629761293
aF0.8345870772682983
aF0.5231089919719045
aF0.04688673659262965
aF0.5640413225746399
aF0.3440598795078009
aF0.2806917917918845
aF0.3468509304267243
aF0.23272719879402415
aF0.5074905181267965
aF0.1305279763564544
aF0.9853977010310028
aF0.9706415643913745
aF0.044627473431922415
aF0.1276964624825052
aF0.4741229857550704
aF0.4203429350200608
aF0.2676404439605634
aF0.16475621613268387
aF0.9926738254555758
aF0.9928504510386098
aF0.5882614338005436
aF0.13824961208101616
aF0.45569194393315726
aF0.8328063229853424
aF0.5466723096391559
aF0.9189233276246315
aF0.4689394430569419
aF0.023941962999895594
aF0.009537848461858345
aF0.7706829729068628
aF0.36587260093570173
aF0.5635527646165486
aF0.8647383613426978
aF0.6428289632798722
aF0.9189374534579668
aF0.9736567044532245
aF0.8199590243389205
aF0.5622342648268899
aF0.22509388727736346
aF0.9007966263768391
aF0.7961475037386744
aF0.01985049164289099
aF0.5702800340361932
aF0.24697081489241823
aF0.040911035813427366
aF0.20926605173743884
aF0.6818446816347191
aF0.9317643786937286
aF0.41184685644390506
aF0.1257138701758418
aF0.7657098041089015
aF0.12202262744306358
aF0.5509167567291959
aF0.973525251464187
aF0.6885869045456408
aF0.20688100095727946
aF0.0497868981935955
aF0.1922208709102814
aF0.5625021979529081
aF0.6173068880236487
aF0.8020571052887524
aF0.8860879132932236
aF0.5452239993796214
aF0.9523262644745797
aF0.773327310530156
aF0.10080865967967789
aF0.009804073499724675
aF0.7161292579288467
aF0.43545060851430173
aF0.33821199990462536
aF0.7486870824787093
aF0.8746712722202773
aF0.36999496856475034
aF0.05560302607073764
aF0.38012087571420794
aF0.30266093627927426
aF0.21247801075289585
aF0.728650931887834
aF0.9203284490447243
aF0.28422468103020093
aF0.3074849103480498
aF0.6597157628996946
aF0.3435835939361255
aF0.025127663803745315
aF0.999295074066753
aF0.812371830045973
aF0.3929120321636045
aF0.7070825704973439
aF0.5226959437205817
aF0.8180807249820095
aF0.518372027761836
aF0.8715539674682553
aF0.057021310547989756
aF0.32070020436863433
aF0.6066241781444759
aF0.8175717395686689
aF0.33825943267080527
aF0.8783224393304729
aF0.20739062933864705
aF0.2011249845803873
aF0.3842519874367485
aF0.7426654475726799
aF0.5811639519731596
aF0.698773236330093
aF0.40784331247080097
aF0.5205916351527654
aF0.6459662618176791
aF0.5146352357466325
aF0.5756906349504775
aF0.4803131093266938
aF0.21906732016165853
aF0.08827163129519755
aF0.8777907763919405
aF0.5673336941631455
aF0.008753669309577439
aF0.6053881788145756
aF0.4639622184680803
aF0.30045108286614575
aF0.1890781541377582
aF0.47935848002896986
aF0.3555940200402149
aF0.9021843941159515
aF0.3088445243019011
aF0.0028455645084901615
aF0.949547938481842
aF0.3307917291366209
aF0.49342714669187515
aF0.5436701962555033
aF0.45963409542433376
aF0.3115737008733692
aF0.940041407754587
aF0.8059095762475503
aF0.8354592065770102
aF0.37019900239170367
aF0.6224687301715199
aF0.06365072024484641
aF0.5066427492741715
aF0.645175429730215
aF0.5851624281209206
aF0.006132868310334216
aF0.9683894019666267
aF0.7173257618800553
aF0.657728727909387
aF0.8539458318105164
aF0.18045739988319354
aF0.42638626445828587
aF0.37987177027905994
aF0.20067534794743835
aF0.47705078124752875
aF0.4472118899032047
aF0.8690556586723944
aF0.580053780927891
aF0.05412821577335336
aF0.1825498833058793
aF0.5125205569272673
aF0.8310475314821468
aF0.10795475672046428
aF0.2931550098287944
aF0.3464021911411761
aF0.22644197355160667
aF0.5552379389140557
aF0.004873342621038224
aF0.9955509890655302
aF0.28973352662259555
aF0.20548980177770615
aF0.4166146626886582
aF0.06715252086400059
aF0.8206474238521655
aF0.5312205159897901
aF0.8752817184402347
aF0.06696584064996347
aF0.312957324479206
aF0.1238317038527077
aF0.956064623280012
aF0.24587668884331948
aF0.832057704357278
aF0.10974763456324177
aF0.6819604914558187
aF0.9240963220235628
aF0.40033426448171405
aF0.9166082792007959
aF0.786847838071633
aF0.8370008051949966
aF0.8031047963602066
aF0.8887832984114679
aF0.10723615108127749
aF0.4946130964399359
aF0.9764099839381656
aF0.20390866608215064
aF0.9361539024343776
aF0.4282502824678799
aF0.6054473201251003
aF0.7280325028894138
aF0.07587060815318569
aF0.8067676208851331
aF0.5909800921670388
aF0.5227558612798807
aF0.6545052486777647
aF0.3900538666676433
aF0.3865633821220722
aF0.9312694267892772
aF0.511362998305351
aF0.0627992375790184
aF0.3306074941591405
aF0.07695825146530688
aF0.3611252068673244
aF0.4232775684032126
aF0.767076768005927
aF0.6515115559029138
aF0.6814138729994708
aF0.38138147244629916
aF0.8684946298873935
aF0.47708169528931554
aF0.9785302011666929
aF0.14199149957030344
aF0.41452741210449773
aF0.0804604657101986
aF0.8730614783645224
aF0.4681656587915951
aF0.8039973124886357
aF0.9165144350865302
aF0.13347034485735176
aF0.8389353069338762
aF0.7578559937418766
aF0.17050170818931965
aF0.9671822287136285
aF0.44793110854113516
aF0.206004261857485
aF0.961154267829159
aF0.34970002360406227
aF0.4404629153771198
aF0.8052666891819733
aF0.6888662662774926
aF0.804554153437327
aF0.9347639648095913
aF0.22890129257629654
aF0.8047682611474767
aF0.9447727003341064
aF0.5574190627382927
aF0.5873600775711963
aF0.055792367504133966
aF0.9129740961082582
aF0.022882031676161763
aF0.9669929161545701
aF0.15150310391355415
aF0.8137531179337086
aF0.44894274010316226
aF0.6620769340341555
aF0.2156083074492604
aF0.41913441083796366
aF0.5023937821226411
aF0.9880187422792751
aF0.3012148427089091
aF0.4449402571072312
aF0.44009954833202336
aF0.5357758178312864
aF0.9037297148940817
aF0.5625611339256253
aF0.7327163432318482
aF0.19650135460826468
aF0.15133492236632617
aF0.8455857824914481
aF0.6306167480606163
aF0.178933776557047
aF0.3350612439884393
aF0.6320919741263304
aF0.02482626337168392
aF0.2436969522070095
aF0.40269624854898256
aF0.17635244905639913
aF0.6219587103574624
aF0.7547109776422601
aF0.5578618419486362
aF0.34744306981448014
aF0.23162803224518458
aF0.1108354606113785
aF0.2823934797361074
aF0.9516742731840357
aF0.36986637188204197
aF0.16046849153383314
aF0.5427692625167854
aF0.34971971664385393
aF0.5595492545240945
aF0.6097780526107747
aF0.8389548063354443
aF0.7671516833188485
aF0.3345206346284433
aF0.7274538623178135
aF0.8623816210460543
aF0.6087423020792012
aF0.40362249938459294
aF0.8828274336725485
aF0.3024836110324317
aF0.5568167889015487
aF0.46667834848377887
aF0.5871622250248394
aF0.26793895597207085
aF0.8829487636532722
aF0.05152492182840296
aF0.3486862806949622
aF0.5305073873561458
aF0.4448425595085034
aF0.8044906998611794
aF0.5500890542049697
aF0.23532876679519565
aF0.5539243229780155
aF0.19347711048397698
aF0.9898813861543508
aF0.4577736066470859
aF0.34016322423579193
aF0.9969418545466394
aF0.11895197065824747
aF0.8539136172610846
aF0.34412466155314825
aF0.628228904942785
aF0.0675610189050041
aF0.8945107694043665
aF0.7000886929085722
aF0.9606363052956329
aF0.6341249300256439
aF0.3963082201559911
aF0.7730613043649717
aF0.47952677895152507
aF0.6890931667985988
aF0.6858439360130867
aF0.4939997172308823
aF0.2952933026325444
aF0.7444874576238536
aF0.904264365279819
aF0.14703803049711928
aF0.6281048465159461
aF0.24115929711701023
aF0.12340916295063264
aF0.45021959559299196
aF0.8399182629868382
aF0.9948185498982118
aF0.5111173558638102
aF0.10232603371559157
aF0.702821685537973
aF0.1103801138316236
aF0.9763688085920774
aF0.8984361054258224
aF0.3539426166854156
aF0.5867031740326785
aF0.7523382447584123
aF0.5312519504285753
aF0.7314444965765828
aF0.49875380252177937
a.